; Function Attrs: cold mustprogress nofree nounwind uwtable
define internal fastcc void @_ZL5usageRKNSt7__cxx1112basic_stringIcSt11char_traitsIcESaIcEEE(ptr noundef nonnull readonly align 8 captures(none) dereferenceable(32) %0) unnamed_addr #1 {
  %2 = load ptr, ptr @stderr, align 8, !tbaa !69
  %fputc = tail call i32 @fputc(i32 10, ptr %2)
  %3 = getelementptr inbounds nuw i8, ptr %0, i64 8
  %4 = load i64, ptr %3, align 8, !tbaa !10
  %5 = icmp eq i64 %4, 0
  br i1 %5, label %10, label %6

6:                                                ; preds = %1
  %7 = load ptr, ptr @stderr, align 8, !tbaa !69
  %8 = load ptr, ptr %0, align 8, !tbaa !14
  %9 = tail call i32 (ptr, ptr, ...) @fprintf(ptr noundef %7, ptr noundef nonnull @.str.16, ptr noundef %8) #40
  br label %10

10:                                               ; preds = %6, %1
  %11 = load ptr, ptr @stderr, align 8, !tbaa !69
  %12 = tail call i64 @fwrite(ptr nonnull @.str.17, i64 2999, i64 1, ptr %11) #41
  ret void
}